target datalayout = "e-m:e-p270:32:32-p271:32:32-p272:64:64-i64:64-i128:128-f80:128-n8:16:32:64-S128"
target triple = "x86_64-pc-linux-gnu"

%struct.CodedBitstreamContext = type { ptr, ptr, ptr, ptr, i32, i32, i32, ptr, ptr, ptr, ptr, i64 }
%struct.APVRawFrameInfo = type { i8, i8, i8, i8, i32, i32, i8, i8, i8, i8 }

@.str.10 = private unnamed_addr constant [20 x i8] c"reserved_zero_8bits\00", align 1
@.str.20 = private unnamed_addr constant [12 x i8] c"profile_idc\00", align 1
@.str.21 = private unnamed_addr constant [10 x i8] c"level_idc\00", align 1
@.str.22 = private unnamed_addr constant [9 x i8] c"band_idc\00", align 1
@.str.23 = private unnamed_addr constant [20 x i8] c"reserved_zero_5bits\00", align 1
@.str.24 = private unnamed_addr constant [12 x i8] c"frame_width\00", align 1
@.str.25 = private unnamed_addr constant [13 x i8] c"frame_height\00", align 1
@.str.26 = private unnamed_addr constant [18 x i8] c"chroma_format_idc\00", align 1
@.str.27 = private unnamed_addr constant [54 x i8] c"chroma_format_idc 1 for 4:2:0 is not allowed in APV.\0A\00", align 1
@.str.28 = private unnamed_addr constant [17 x i8] c"bit_depth_minus8\00", align 1
@.str.29 = private unnamed_addr constant [22 x i8] c"capture_time_distance\00", align 1

; Function Attrs: nounwind uwtable
define internal i32 @cbs_apv_write_frame_info(ptr noundef %0, ptr noundef %1, ptr noundef %2) #0 {
  %4 = alloca i32, align 4
  %5 = alloca ptr, align 8
  %6 = alloca ptr, align 8
  %7 = alloca ptr, align 8
  %8 = alloca i32, align 4
  %9 = alloca i32, align 4
  %10 = alloca i32, align 4
  %11 = alloca i32, align 4
  %12 = alloca i32, align 4
  %13 = alloca i32, align 4
  %14 = alloca i32, align 4
  %15 = alloca i32, align 4
  %16 = alloca i32, align 4
  %17 = alloca i32, align 4
  %18 = alloca i32, align 4
  %19 = alloca i32, align 4
  store ptr %0, ptr %5, align 8, !tbaa !4
  store ptr %1, ptr %6, align 8, !tbaa !50
  store ptr %2, ptr %7, align 8, !tbaa !123
  call void @llvm.lifetime.start.p0(i64 4, ptr %8) #8
  br label %20

20:                                               ; preds = %3
  call void @llvm.lifetime.start.p0(i64 4, ptr %9) #8
  %21 = load ptr, ptr %7, align 8, !tbaa !123
  %22 = getelementptr inbounds nuw %struct.APVRawFrameInfo, ptr %21, i32 0, i32 0
  %23 = load i8, ptr %22, align 4, !tbaa !125
  %24 = zext i8 %23 to i32
  store i32 %24, ptr %9, align 4, !tbaa !11
  br label %25

25:                                               ; preds = %20
  %26 = load ptr, ptr %5, align 8, !tbaa !4
  %27 = load ptr, ptr %6, align 8, !tbaa !50
  %28 = load i32, ptr %9, align 4, !tbaa !11
  %29 = call i32 @ff_cbs_write_unsigned(ptr noundef %26, ptr noundef %27, i32 noundef 8, ptr noundef @.str.20, ptr noundef null, i32 noundef %28, i32 noundef 0, i32 noundef 255)
  store i32 %29, ptr %8, align 4, !tbaa !11
  %30 = load i32, ptr %8, align 4, !tbaa !11
  %31 = icmp slt i32 %30, 0
  br i1 %31, label %32, label %34

32:                                               ; preds = %25
  %33 = load i32, ptr %8, align 4, !tbaa !11
  store i32 %33, ptr %4, align 4
  store i32 1, ptr %10, align 4
  br label %37

34:                                               ; preds = %25
  br label %35

35:                                               ; preds = %34
  br label %36

36:                                               ; preds = %35
  store i32 0, ptr %10, align 4
  br label %37

37:                                               ; preds = %36, %32
  call void @llvm.lifetime.end.p0(i64 4, ptr %9) #8
  %38 = load i32, ptr %10, align 4
  switch i32 %38, label %248 [
    i32 0, label %39
  ]

39:                                               ; preds = %37
  br label %40

40:                                               ; preds = %39
  br label %41

41:                                               ; preds = %40
  br label %42

42:                                               ; preds = %41
  call void @llvm.lifetime.start.p0(i64 4, ptr %11) #8
  %43 = load ptr, ptr %7, align 8, !tbaa !123
  %44 = getelementptr inbounds nuw %struct.APVRawFrameInfo, ptr %43, i32 0, i32 1
  %45 = load i8, ptr %44, align 1, !tbaa !126
  %46 = zext i8 %45 to i32
  store i32 %46, ptr %11, align 4, !tbaa !11
  br label %47

47:                                               ; preds = %42
  %48 = load ptr, ptr %5, align 8, !tbaa !4
  %49 = load ptr, ptr %6, align 8, !tbaa !50
  %50 = load i32, ptr %11, align 4, !tbaa !11
  %51 = call i32 @ff_cbs_write_unsigned(ptr noundef %48, ptr noundef %49, i32 noundef 8, ptr noundef @.str.21, ptr noundef null, i32 noundef %50, i32 noundef 0, i32 noundef 255)
  store i32 %51, ptr %8, align 4, !tbaa !11
  %52 = load i32, ptr %8, align 4, !tbaa !11
  %53 = icmp slt i32 %52, 0
  br i1 %53, label %54, label %56

54:                                               ; preds = %47
  %55 = load i32, ptr %8, align 4, !tbaa !11
  store i32 %55, ptr %4, align 4
  store i32 1, ptr %10, align 4
  br label %59

56:                                               ; preds = %47
  br label %57

57:                                               ; preds = %56
  br label %58

58:                                               ; preds = %57
  store i32 0, ptr %10, align 4
  br label %59

59:                                               ; preds = %58, %54
  call void @llvm.lifetime.end.p0(i64 4, ptr %11) #8
  %60 = load i32, ptr %10, align 4
  switch i32 %60, label %248 [
    i32 0, label %61
  ]

61:                                               ; preds = %59
  br label %62

62:                                               ; preds = %61
  br label %63

63:                                               ; preds = %62
  br label %64

64:                                               ; preds = %63
  call void @llvm.lifetime.start.p0(i64 4, ptr %12) #8
  %65 = load ptr, ptr %7, align 8, !tbaa !123
  %66 = getelementptr inbounds nuw %struct.APVRawFrameInfo, ptr %65, i32 0, i32 2
  %67 = load i8, ptr %66, align 2, !tbaa !127
  %68 = zext i8 %67 to i32
  store i32 %68, ptr %12, align 4, !tbaa !11
  br label %69

69:                                               ; preds = %64
  %70 = load ptr, ptr %5, align 8, !tbaa !4
  %71 = load ptr, ptr %6, align 8, !tbaa !50
  %72 = load i32, ptr %12, align 4, !tbaa !11
  %73 = call i32 @ff_cbs_write_unsigned(ptr noundef %70, ptr noundef %71, i32 noundef 3, ptr noundef @.str.22, ptr noundef null, i32 noundef %72, i32 noundef 0, i32 noundef 7)
  store i32 %73, ptr %8, align 4, !tbaa !11
  %74 = load i32, ptr %8, align 4, !tbaa !11
  %75 = icmp slt i32 %74, 0
  br i1 %75, label %76, label %78

76:                                               ; preds = %69
  %77 = load i32, ptr %8, align 4, !tbaa !11
  store i32 %77, ptr %4, align 4
  store i32 1, ptr %10, align 4
  br label %81

78:                                               ; preds = %69
  br label %79

79:                                               ; preds = %78
  br label %80

80:                                               ; preds = %79
  store i32 0, ptr %10, align 4
  br label %81

81:                                               ; preds = %80, %76
  call void @llvm.lifetime.end.p0(i64 4, ptr %12) #8
  %82 = load i32, ptr %10, align 4
  switch i32 %82, label %248 [
    i32 0, label %83
  ]

83:                                               ; preds = %81
  br label %84

84:                                               ; preds = %83
  br label %85

85:                                               ; preds = %84
  br label %86

86:                                               ; preds = %85
  call void @llvm.lifetime.start.p0(i64 4, ptr %13) #8
  %87 = load ptr, ptr %7, align 8, !tbaa !123
  %88 = getelementptr inbounds nuw %struct.APVRawFrameInfo, ptr %87, i32 0, i32 3
  %89 = load i8, ptr %88, align 1, !tbaa !128
  %90 = zext i8 %89 to i32
  store i32 %90, ptr %13, align 4, !tbaa !11
  br label %91

91:                                               ; preds = %86
  %92 = load ptr, ptr %5, align 8, !tbaa !4
  %93 = load ptr, ptr %6, align 8, !tbaa !50
  %94 = load i32, ptr %13, align 4, !tbaa !11
  %95 = call i32 @ff_cbs_write_unsigned(ptr noundef %92, ptr noundef %93, i32 noundef 5, ptr noundef @.str.23, ptr noundef null, i32 noundef %94, i32 noundef 0, i32 noundef 0)
  store i32 %95, ptr %8, align 4, !tbaa !11
  %96 = load i32, ptr %8, align 4, !tbaa !11
  %97 = icmp slt i32 %96, 0
  br i1 %97, label %98, label %100

98:                                               ; preds = %91
  %99 = load i32, ptr %8, align 4, !tbaa !11
  store i32 %99, ptr %4, align 4
  store i32 1, ptr %10, align 4
  br label %103

100:                                              ; preds = %91
  br label %101

101:                                              ; preds = %100
  br label %102

102:                                              ; preds = %101
  store i32 0, ptr %10, align 4
  br label %103

103:                                              ; preds = %102, %98
  call void @llvm.lifetime.end.p0(i64 4, ptr %13) #8
  %104 = load i32, ptr %10, align 4
  switch i32 %104, label %248 [
    i32 0, label %105
  ]

105:                                              ; preds = %103
  br label %106

106:                                              ; preds = %105
  br label %107

107:                                              ; preds = %106
  br label %108

108:                                              ; preds = %107
  call void @llvm.lifetime.start.p0(i64 4, ptr %14) #8
  %109 = load ptr, ptr %7, align 8, !tbaa !123
  %110 = getelementptr inbounds nuw %struct.APVRawFrameInfo, ptr %109, i32 0, i32 4
  %111 = load i32, ptr %110, align 4, !tbaa !129
  store i32 %111, ptr %14, align 4, !tbaa !11
  br label %112

112:                                              ; preds = %108
  %113 = load ptr, ptr %5, align 8, !tbaa !4
  %114 = load ptr, ptr %6, align 8, !tbaa !50
  %115 = load i32, ptr %14, align 4, !tbaa !11
  %116 = call i32 @ff_cbs_write_unsigned(ptr noundef %113, ptr noundef %114, i32 noundef 24, ptr noundef @.str.24, ptr noundef null, i32 noundef %115, i32 noundef 0, i32 noundef 16777215)
  store i32 %116, ptr %8, align 4, !tbaa !11
  %117 = load i32, ptr %8, align 4, !tbaa !11
  %118 = icmp slt i32 %117, 0
  br i1 %118, label %119, label %121

119:                                              ; preds = %112
  %120 = load i32, ptr %8, align 4, !tbaa !11
  store i32 %120, ptr %4, align 4
  store i32 1, ptr %10, align 4
  br label %124

121:                                              ; preds = %112
  br label %122

122:                                              ; preds = %121
  br label %123

123:                                              ; preds = %122
  store i32 0, ptr %10, align 4
  br label %124

124:                                              ; preds = %123, %119
  call void @llvm.lifetime.end.p0(i64 4, ptr %14) #8
  %125 = load i32, ptr %10, align 4
  switch i32 %125, label %248 [
    i32 0, label %126
  ]

126:                                              ; preds = %124
  br label %127

127:                                              ; preds = %126
  br label %128

128:                                              ; preds = %127
  br label %129

129:                                              ; preds = %128
  call void @llvm.lifetime.start.p0(i64 4, ptr %15) #8
  %130 = load ptr, ptr %7, align 8, !tbaa !123
  %131 = getelementptr inbounds nuw %struct.APVRawFrameInfo, ptr %130, i32 0, i32 5
  %132 = load i32, ptr %131, align 4, !tbaa !130
  store i32 %132, ptr %15, align 4, !tbaa !11
  br label %133

133:                                              ; preds = %129
  %134 = load ptr, ptr %5, align 8, !tbaa !4
  %135 = load ptr, ptr %6, align 8, !tbaa !50
  %136 = load i32, ptr %15, align 4, !tbaa !11
  %137 = call i32 @ff_cbs_write_unsigned(ptr noundef %134, ptr noundef %135, i32 noundef 24, ptr noundef @.str.25, ptr noundef null, i32 noundef %136, i32 noundef 0, i32 noundef 16777215)
  store i32 %137, ptr %8, align 4, !tbaa !11
  %138 = load i32, ptr %8, align 4, !tbaa !11
  %139 = icmp slt i32 %138, 0
  br i1 %139, label %140, label %142

140:                                              ; preds = %133
  %141 = load i32, ptr %8, align 4, !tbaa !11
  store i32 %141, ptr %4, align 4
  store i32 1, ptr %10, align 4
  br label %145

142:                                              ; preds = %133
  br label %143

143:                                              ; preds = %142
  br label %144

144:                                              ; preds = %143
  store i32 0, ptr %10, align 4
  br label %145

145:                                              ; preds = %144, %140
  call void @llvm.lifetime.end.p0(i64 4, ptr %15) #8
  %146 = load i32, ptr %10, align 4
  switch i32 %146, label %248 [
    i32 0, label %147
  ]

147:                                              ; preds = %145
  br label %148

148:                                              ; preds = %147
  br label %149

149:                                              ; preds = %148
  br label %150

150:                                              ; preds = %149
  call void @llvm.lifetime.start.p0(i64 4, ptr %16) #8
  %151 = load ptr, ptr %7, align 8, !tbaa !123
  %152 = getelementptr inbounds nuw %struct.APVRawFrameInfo, ptr %151, i32 0, i32 6
  %153 = load i8, ptr %152, align 4, !tbaa !131
  %154 = zext i8 %153 to i32
  store i32 %154, ptr %16, align 4, !tbaa !11
  br label %155

155:                                              ; preds = %150
  %156 = load ptr, ptr %5, align 8, !tbaa !4
  %157 = load ptr, ptr %6, align 8, !tbaa !50
  %158 = load i32, ptr %16, align 4, !tbaa !11
  %159 = call i32 @ff_cbs_write_unsigned(ptr noundef %156, ptr noundef %157, i32 noundef 4, ptr noundef @.str.26, ptr noundef null, i32 noundef %158, i32 noundef 0, i32 noundef 4)
  store i32 %159, ptr %8, align 4, !tbaa !11
  %160 = load i32, ptr %8, align 4, !tbaa !11
  %161 = icmp slt i32 %160, 0
  br i1 %161, label %162, label %164

162:                                              ; preds = %155
  %163 = load i32, ptr %8, align 4, !tbaa !11
  store i32 %163, ptr %4, align 4
  store i32 1, ptr %10, align 4
  br label %167

164:                                              ; preds = %155
  br label %165

165:                                              ; preds = %164
  br label %166

166:                                              ; preds = %165
  store i32 0, ptr %10, align 4
  br label %167

167:                                              ; preds = %166, %162
  call void @llvm.lifetime.end.p0(i64 4, ptr %16) #8
  %168 = load i32, ptr %10, align 4
  switch i32 %168, label %248 [
    i32 0, label %169
  ]

169:                                              ; preds = %167
  br label %170

170:                                              ; preds = %169
  br label %171

171:                                              ; preds = %170
  %172 = load ptr, ptr %7, align 8, !tbaa !123
  %173 = getelementptr inbounds nuw %struct.APVRawFrameInfo, ptr %172, i32 0, i32 6
  %174 = load i8, ptr %173, align 4, !tbaa !131
  %175 = zext i8 %174 to i32
  %176 = icmp eq i32 %175, 1
  br i1 %176, label %177, label %181

177:                                              ; preds = %171
  %178 = load ptr, ptr %5, align 8, !tbaa !4
  %179 = getelementptr inbounds nuw %struct.CodedBitstreamContext, ptr %178, i32 0, i32 0
  %180 = load ptr, ptr %179, align 8, !tbaa !27
  call void (ptr, i32, ptr, ...) @av_log(ptr noundef %180, i32 noundef 16, ptr noundef @.str.27)
  store i32 -1094995529, ptr %4, align 4
  store i32 1, ptr %10, align 4
  br label %248

181:                                              ; preds = %171
  br label %182

182:                                              ; preds = %181
  call void @llvm.lifetime.start.p0(i64 4, ptr %17) #8
  %183 = load ptr, ptr %7, align 8, !tbaa !123
  %184 = getelementptr inbounds nuw %struct.APVRawFrameInfo, ptr %183, i32 0, i32 7
  %185 = load i8, ptr %184, align 1, !tbaa !132
  %186 = zext i8 %185 to i32
  store i32 %186, ptr %17, align 4, !tbaa !11
  br label %187

187:                                              ; preds = %182
  %188 = load ptr, ptr %5, align 8, !tbaa !4
  %189 = load ptr, ptr %6, align 8, !tbaa !50
  %190 = load i32, ptr %17, align 4, !tbaa !11
  %191 = call i32 @ff_cbs_write_unsigned(ptr noundef %188, ptr noundef %189, i32 noundef 4, ptr noundef @.str.28, ptr noundef null, i32 noundef %190, i32 noundef 2, i32 noundef 8)
  store i32 %191, ptr %8, align 4, !tbaa !11
  %192 = load i32, ptr %8, align 4, !tbaa !11
  %193 = icmp slt i32 %192, 0
  br i1 %193, label %194, label %196

194:                                              ; preds = %187
  %195 = load i32, ptr %8, align 4, !tbaa !11
  store i32 %195, ptr %4, align 4
  store i32 1, ptr %10, align 4
  br label %199

196:                                              ; preds = %187
  br label %197

197:                                              ; preds = %196
  br label %198

198:                                              ; preds = %197
  store i32 0, ptr %10, align 4
  br label %199

199:                                              ; preds = %198, %194
  call void @llvm.lifetime.end.p0(i64 4, ptr %17) #8
  %200 = load i32, ptr %10, align 4
  switch i32 %200, label %248 [
    i32 0, label %201
  ]

201:                                              ; preds = %199
  br label %202

202:                                              ; preds = %201
  br label %203

203:                                              ; preds = %202
  br label %204

204:                                              ; preds = %203
  call void @llvm.lifetime.start.p0(i64 4, ptr %18) #8
  %205 = load ptr, ptr %7, align 8, !tbaa !123
  %206 = getelementptr inbounds nuw %struct.APVRawFrameInfo, ptr %205, i32 0, i32 8
  %207 = load i8, ptr %206, align 2, !tbaa !133
  %208 = zext i8 %207 to i32
  store i32 %208, ptr %18, align 4, !tbaa !11
  br label %209

209:                                              ; preds = %204
  %210 = load ptr, ptr %5, align 8, !tbaa !4
  %211 = load ptr, ptr %6, align 8, !tbaa !50
  %212 = load i32, ptr %18, align 4, !tbaa !11
  %213 = call i32 @ff_cbs_write_unsigned(ptr noundef %210, ptr noundef %211, i32 noundef 8, ptr noundef @.str.29, ptr noundef null, i32 noundef %212, i32 noundef 0, i32 noundef 255)
  store i32 %213, ptr %8, align 4, !tbaa !11
  %214 = load i32, ptr %8, align 4, !tbaa !11
  %215 = icmp slt i32 %214, 0
  br i1 %215, label %216, label %218

216:                                              ; preds = %209
  %217 = load i32, ptr %8, align 4, !tbaa !11
  store i32 %217, ptr %4, align 4
  store i32 1, ptr %10, align 4
  br label %221

218:                                              ; preds = %209
  br label %219

219:                                              ; preds = %218
  br label %220

220:                                              ; preds = %219
  store i32 0, ptr %10, align 4
  br label %221

221:                                              ; preds = %220, %216
  call void @llvm.lifetime.end.p0(i64 4, ptr %18) #8
  %222 = load i32, ptr %10, align 4
  switch i32 %222, label %248 [
    i32 0, label %223
  ]

223:                                              ; preds = %221
  br label %224

224:                                              ; preds = %223
  br label %225

225:                                              ; preds = %224
  br label %226

226:                                              ; preds = %225
  call void @llvm.lifetime.start.p0(i64 4, ptr %19) #8
  %227 = load ptr, ptr %7, align 8, !tbaa !123
  %228 = getelementptr inbounds nuw %struct.APVRawFrameInfo, ptr %227, i32 0, i32 9
  %229 = load i8, ptr %228, align 1, !tbaa !134
  %230 = zext i8 %229 to i32
  store i32 %230, ptr %19, align 4, !tbaa !11
  br label %231

231:                                              ; preds = %226
  %232 = load ptr, ptr %5, align 8, !tbaa !4
  %233 = load ptr, ptr %6, align 8, !tbaa !50
  %234 = load i32, ptr %19, align 4, !tbaa !11
  %235 = call i32 @ff_cbs_write_unsigned(ptr noundef %232, ptr noundef %233, i32 noundef 8, ptr noundef @.str.10, ptr noundef null, i32 noundef %234, i32 noundef 0, i32 noundef 0)
  store i32 %235, ptr %8, align 4, !tbaa !11
  %236 = load i32, ptr %8, align 4, !tbaa !11
  %237 = icmp slt i32 %236, 0
  br i1 %237, label %238, label %240

238:                                              ; preds = %231
  %239 = load i32, ptr %8, align 4, !tbaa !11
  store i32 %239, ptr %4, align 4
  store i32 1, ptr %10, align 4
  br label %243

240:                                              ; preds = %231
  br label %241

241:                                              ; preds = %240
  br label %242

242:                                              ; preds = %241
  store i32 0, ptr %10, align 4
  br label %243

243:                                              ; preds = %242, %238
  call void @llvm.lifetime.end.p0(i64 4, ptr %19) #8
  %244 = load i32, ptr %10, align 4
  switch i32 %244, label %248 [
    i32 0, label %245
  ]

245:                                              ; preds = %243
  br label %246

246:                                              ; preds = %245
  br label %247

247:                                              ; preds = %246
  store i32 0, ptr %4, align 4
  store i32 1, ptr %10, align 4
  br label %248

248:                                              ; preds = %247, %243, %221, %199, %177, %167, %145, %124, %103, %81, %59, %37
  call void @llvm.lifetime.end.p0(i64 4, ptr %8) #8
  %249 = load i32, ptr %4, align 4
  ret i32 %249
}