; Function Attrs: nounwind uwtable
define internal fastcc range(i32 -2147483648, 1) i32 @cbs_apv_write_frame_info(ptr noundef %0, ptr noundef %1, ptr noundef readonly captures(none) %2) unnamed_addr #0 {
  %4 = load i8, ptr %2, align 4, !tbaa !162
  %5 = zext i8 %4 to i32
  %6 = tail call i32 @ff_cbs_write_unsigned(ptr noundef %0, ptr noundef %1, i32 noundef 8, ptr noundef nonnull @.str.20, ptr noundef null, i32 noundef %5, i32 noundef 0, i32 noundef 255) #7
  %7 = icmp sgt i32 %6, -1
  br i1 %7, label %8, label %64

8:                                                ; preds = %3
  %9 = getelementptr inbounds nuw i8, ptr %2, i64 1
  %10 = load i8, ptr %9, align 1, !tbaa !163
  %11 = zext i8 %10 to i32
  %12 = tail call i32 @ff_cbs_write_unsigned(ptr noundef %0, ptr noundef %1, i32 noundef 8, ptr noundef nonnull @.str.21, ptr noundef null, i32 noundef %11, i32 noundef 0, i32 noundef 255) #7
  %13 = icmp sgt i32 %12, -1
  br i1 %13, label %14, label %64

14:                                               ; preds = %8
  %15 = getelementptr inbounds nuw i8, ptr %2, i64 2
  %16 = load i8, ptr %15, align 2, !tbaa !164
  %17 = zext i8 %16 to i32
  %18 = tail call i32 @ff_cbs_write_unsigned(ptr noundef %0, ptr noundef %1, i32 noundef 3, ptr noundef nonnull @.str.22, ptr noundef null, i32 noundef %17, i32 noundef 0, i32 noundef 7) #7
  %19 = icmp sgt i32 %18, -1
  br i1 %19, label %20, label %64

20:                                               ; preds = %14
  %21 = getelementptr inbounds nuw i8, ptr %2, i64 3
  %22 = load i8, ptr %21, align 1, !tbaa !165
  %23 = zext i8 %22 to i32
  %24 = tail call i32 @ff_cbs_write_unsigned(ptr noundef %0, ptr noundef %1, i32 noundef 5, ptr noundef nonnull @.str.23, ptr noundef null, i32 noundef %23, i32 noundef 0, i32 noundef 0) #7
  %25 = icmp sgt i32 %24, -1
  br i1 %25, label %26, label %64

26:                                               ; preds = %20
  %27 = getelementptr inbounds nuw i8, ptr %2, i64 4
  %28 = load i32, ptr %27, align 4, !tbaa !166
  %29 = tail call i32 @ff_cbs_write_unsigned(ptr noundef %0, ptr noundef %1, i32 noundef 24, ptr noundef nonnull @.str.24, ptr noundef null, i32 noundef %28, i32 noundef 0, i32 noundef 16777215) #7
  %30 = icmp sgt i32 %29, -1
  br i1 %30, label %31, label %64

31:                                               ; preds = %26
  %32 = getelementptr inbounds nuw i8, ptr %2, i64 8
  %33 = load i32, ptr %32, align 4, !tbaa !167
  %34 = tail call i32 @ff_cbs_write_unsigned(ptr noundef %0, ptr noundef %1, i32 noundef 24, ptr noundef nonnull @.str.25, ptr noundef null, i32 noundef %33, i32 noundef 0, i32 noundef 16777215) #7
  %35 = icmp sgt i32 %34, -1
  br i1 %35, label %36, label %64

36:                                               ; preds = %31
  %37 = getelementptr inbounds nuw i8, ptr %2, i64 12
  %38 = load i8, ptr %37, align 4, !tbaa !168
  %39 = zext i8 %38 to i32
  %40 = tail call i32 @ff_cbs_write_unsigned(ptr noundef %0, ptr noundef %1, i32 noundef 4, ptr noundef nonnull @.str.26, ptr noundef null, i32 noundef %39, i32 noundef 0, i32 noundef 4) #7
  %41 = icmp sgt i32 %40, -1
  br i1 %41, label %42, label %64

42:                                               ; preds = %36
  %43 = load i8, ptr %37, align 4, !tbaa !168
  %44 = icmp eq i8 %43, 1
  br i1 %44, label %45, label %47

45:                                               ; preds = %42
  %46 = load ptr, ptr %0, align 8, !tbaa !20
  tail call void (ptr, i32, ptr, ...) @av_log(ptr noundef %46, i32 noundef 16, ptr noundef nonnull @.str.27) #7
  br label %64

47:                                               ; preds = %42
  %48 = getelementptr inbounds nuw i8, ptr %2, i64 13
  %49 = load i8, ptr %48, align 1, !tbaa !169
  %50 = zext i8 %49 to i32
  %51 = tail call i32 @ff_cbs_write_unsigned(ptr noundef %0, ptr noundef %1, i32 noundef 4, ptr noundef nonnull @.str.28, ptr noundef null, i32 noundef %50, i32 noundef 2, i32 noundef 8) #7
  %52 = icmp sgt i32 %51, -1
  br i1 %52, label %53, label %64

53:                                               ; preds = %47
  %54 = getelementptr inbounds nuw i8, ptr %2, i64 14
  %55 = load i8, ptr %54, align 2, !tbaa !170
  %56 = zext i8 %55 to i32
  %57 = tail call i32 @ff_cbs_write_unsigned(ptr noundef %0, ptr noundef %1, i32 noundef 8, ptr noundef nonnull @.str.29, ptr noundef null, i32 noundef %56, i32 noundef 0, i32 noundef 255) #7
  %58 = icmp sgt i32 %57, -1
  br i1 %58, label %59, label %64

59:                                               ; preds = %53
  %60 = getelementptr inbounds nuw i8, ptr %2, i64 15
  %61 = load i8, ptr %60, align 1, !tbaa !171
  %62 = zext i8 %61 to i32
  %63 = tail call i32 @ff_cbs_write_unsigned(ptr noundef %0, ptr noundef %1, i32 noundef 8, ptr noundef nonnull @.str.10, ptr noundef null, i32 noundef %62, i32 noundef 0, i32 noundef 0) #7
  %spec.select = tail call i32 @llvm.smin.i32(i32 %63, i32 0)
  br label %64

64:                                               ; preds = %59, %53, %47, %36, %31, %26, %20, %14, %8, %3, %45
  %.1 = phi i32 [ -1094995529, %45 ], [ %57, %53 ], [ %51, %47 ], [ %40, %36 ], [ %34, %31 ], [ %29, %26 ], [ %24, %20 ], [ %18, %14 ], [ %12, %8 ], [ %6, %3 ], [ %spec.select, %59 ]
  ret i32 %.1
}